(lp0
(dp1
Vdate
p2
V1993
p3
sVamount
p4
F5.5
sVrounded_amount
p5
F6.0
sVdonation
p6
F0.5
sVid
p7
F1.0
sa(dp8
g2
g3
sg4
F5.4
sg5
F6.0
sg6
F0.59
sg7
F2.0
sa(dp9
g2
V1996
p10
sg4
F14.75
sg5
F15.0
sg6
F0.25
sg7
F3.0
sa(dp11
g2
g10
sg4
F5.1
sg5
F6.0
sg6
F0.9
sg7
F4.0
sa(dp12
g2
V1998
p13
sg4
F5.5
sg5
F6.0
sg6
F0.5
sg7
F5.0
sa(dp14
g2
g13
sg4
F2.5
sg5
F3.0
sg6
F0.5
sg7
F6.0
sa(dp15
g2
g13
sg4
F2.2
sg5
F3.0
sg6
F0.79
sg7
F7.0
sa(dp16
g2
V1999
p17
sg4
F3.0
sg5
F3.0
sg6
F0.0
sg7
F8.0
sa(dp18
g2
g17
sg4
F2.0
sg5
F2.0
sg6
F0.0
sg7
F9.0
sa(dp19
g2
g17
sg4
F1.05
sg5
F2.0
sg6
F0.95
sg7
F10.0
sa(dp20
g2
g17
sg4
F15.0
sg5
F15.0
sg6
F0.0
sg7
F11.0
sa(dp21
g2
g17
sg4
F8.08
sg5
F9.0
sg6
F0.92
sg7
F12.0
sa(dp22
g2
V2000
p23
sg4
F11.85
sg5
F12.0
sg6
F0.15
sg7
F13.0
sa(dp24
g2
g23
sg4
F9.2
sg5
F10.0
sg6
F0.8
sg7
F14.0
sa(dp25
g2
g23
sg4
F7.85
sg5
F8.0
sg6
F0.15
sg7
F15.0
sa(dp26
g2
g23
sg4
F22.99
sg5
F23.0
sg6
F0.01
sg7
F17.0
sa(dp27
g2
g23
sg4
F5.49
sg5
F6.0
sg6
F0.5
sg7
F18.0
sa(dp28
g2
g23
sg4
F7.99
sg5
F8.0
sg6
F0.0
sg7
F19.0
sa(dp29
g2
g23
sg4
F3.94
sg5
F4.0
sg6
F0.06
sg7
F20.0
sa(dp30
g2
V2003
p31
sg4
F5.5
sg5
F6.0
sg6
F0.5
sg7
F21.0
sa(dp32
g2
V2004
p33
sg4
F19.13
sg5
F20.0
sg6
F0.87
sg7
F24.0
sa(dp34
g2
g33
sg4
F6.49
sg5
F7.0
sg6
F0.5
sg7
F25.0
sa(dp35
g2
g33
sg4
F3.75
sg5
F4.0
sg6
F0.25
sg7
F26.0
sa(dp36
g2
g33
sg4
F3.5
sg5
F4.0
sg6
F0.5
sg7
F27.0
sa(dp37
g2
g33
sg4
F2.95
sg5
F3.0
sg6
F0.04
sg7
F28.0
sa(dp38
g2
g33
sg4
F29.35
sg5
F30.0
sg6
F0.64
sg7
F29.0
sa(dp39
g2
V2005
p40
sg4
F19.99
sg5
F20.0
sg6
F0.01
sg7
F30.0
sa(dp41
g2
V1976
p42
sg4
F5.5
sg5
F6.0
sg6
F0.5
sg7
F31.0
sa(dp43
g2
g42
sg4
F36.55
sg5
F37.0
sg6
F0.45
sg7
F32.0
sa(dp44
g2
V1977
p45
sg4
F35.1
sg5
F36.0
sg6
F0.89
sg7
F34.0
sa(dp46
g2
g45
sg4
F8.9
sg5
F9.0
sg6
F0.09
sg7
F35.0
sa(dp47
g2
g45
sg4
F7.79
sg5
F8.0
sg6
F0.2
sg7
F36.0
sa(dp48
g2
g45
sg4
F7.15
sg5
F8.0
sg6
F0.84
sg7
F37.0
sa(dp49
g2
g45
sg4
F12.83
sg5
F13.0
sg6
F0.16
sg7
F38.0
sa(dp50
g2
V1980
p51
sg4
F4.4
sg5
F5.0
sg6
F0.59
sg7
F39.0
sa(dp52
g2
g51
sg4
F4.0
sg5
F4.0
sg6
F0.0
sg7
F40.0
sa(dp53
g2
g51
sg4
F3.79
sg5
F4.0
sg6
F0.2
sg7
F41.0
sa(dp54
g2
g51
sg4
F39.99
sg5
F40.0
sg6
F0.0
sg7
F42.0
sa(dp55
g2
g51
sg4
F35.99
sg5
F36.0
sg6
F0.0
sg7
F43.0
sa(dp56
g2
g51
sg4
F6.98
sg5
F7.0
sg6
F0.01
sg7
F44.0
sa(dp57
g2
V1981
p58
sg4
F10.95
sg5
F11.0
sg6
F0.05
sg7
F45.0
sa(dp59
g2
g58
sg4
F5.85
sg5
F6.0
sg6
F0.15
sg7
F46.0
sa(dp60
g2
V1982
p61
sg4
F17.65
sg5
F18.0
sg6
F0.35
sg7
F47.0
sa(dp62
g2
g61
sg4
F3.3
sg5
F4.0
sg6
F0.7
sg7
F48.0
sa(dp63
g2
g61
sg4
F3.9
sg5
F4.0
sg6
F0.1
sg7
F49.0
sa(dp64
g2
V1983
p65
sg4
F5.5
sg5
F6.0
sg6
F0.5
sg7
F51.0
sa(dp66
g2
g65
sg4
F5.15
sg5
F6.0
sg6
F0.84
sg7
F52.0
sa(dp67
g2
g65
sg4
F17.99
sg5
F18.0
sg6
F0.01
sg7
F53.0
sa(dp68
g2
V1984
p69
sg4
F20.0
sg5
F20.0
sg6
F0.0
sg7
F55.0
sa(dp70
g2
g69
sg4
F20.0
sg5
F20.0
sg6
F0.0
sg7
F56.0
sa(dp71
g2
g69
sg4
F10.35
sg5
F11.0
sg6
F0.65
sg7
F58.0
sa(dp72
g2
g69
sg4
F8.2
sg5
F9.0
sg6
F0.8
sg7
F59.0
sa(dp73
g2
g69
sg4
F5.75
sg5
F6.0
sg6
F0.25
sg7
F60.0
sa(dp74
g2
g69
sg4
F2.3
sg5
F3.0
sg6
F0.7
sg7
F61.0
sa(dp75
g2
g69
sg4
F7.49
sg5
F8.0
sg6
F0.5
sg7
F62.0
sa(dp76
g2
V1987
p77
sg4
F10.0
sg5
F10.0
sg6
F0.0
sg7
F63.0
sa(dp78
g2
g77
sg4
F5.5
sg5
F6.0
sg6
F0.5
sg7
F64.0
sa(dp79
g2
g77
sg4
F10.0
sg5
F10.0
sg6
F0.0
sg7
F65.0
sa(dp80
g2
V1988
p81
sg4
F22.4
sg5
F23.0
sg6
F0.6
sg7
F68.0
sa(dp82
g2
g81
sg4
F3.97
sg5
F4.0
sg6
F0.02
sg7
F69.0
sa(dp83
g2
g81
sg4
F2.55
sg5
F3.0
sg6
F0.45
sg7
F70.0
sa(dp84
g2
g81
sg4
F0.79
sg5
F1.0
sg6
F0.2
sg7
F71.0
sa(dp85
g2
V1990
p86
sg4
F2.6
sg5
F3.0
sg6
F0.39
sg7
F72.0
sa(dp87
g2
V1991
p88
sg4
F20.12
sg5
F21.0
sg6
F0.87
sg7
F73.0
sa(dp89
g2
g88
sg4
F15.0
sg5
F15.0
sg6
F0.0
sg7
F74.0
sa(dp90
g2
g88
sg4
F12.3
sg5
F13.0
sg6
F0.69
sg7
F75.0
sa(dp91
g2
g88
sg4
F11.25
sg5
F12.0
sg6
F0.75
sg7
F76.0
sa(dp92
g2
g88
sg4
F3.48
sg5
F4.0
sg6
F0.52
sg7
F77.0
sa(dp93
g2
V1994
p94
sg4
F7.15
sg5
F8.0
sg6
F0.84
sg7
F78.0
sa(dp95
g2
g94
sg4
F4.28
sg5
F5.0
sg6
F0.71
sg7
F79.0
sa(dp96
g2
V1995
p97
sg4
F50.0
sg5
F50.0
sg6
F0.0
sg7
F80.0
sa(dp98
g2
g97
sg4
F8.0
sg5
F8.0
sg6
F0.0
sg7
F81.0
sa(dp99
g2
g97
sg4
F7.9
sg5
F8.0
sg6
F0.09
sg7
F82.0
sa(dp100
g2
g97
sg4
F2.0
sg5
F2.0
sg6
F0.0
sg7
F83.0
sa(dp101
g2
g97
sg4
F4.5
sg5
F5.0
sg6
F0.5
sg7
F84.0
sa(dp102
g2
g97
sg4
F3.5
sg5
F4.0
sg6
F0.5
sg7
F85.0
sa(dp103
g2
g97
sg4
F3.5
sg5
F4.0
sg6
F0.5
sg7
F86.0
sa(dp104
g2
g97
sg4
F3.5
sg5
F4.0
sg6
F0.5
sg7
F87.0
sa(dp105
g2
g97
sg4
F2.2
sg5
F3.0
sg6
F0.79
sg7
F88.0
sa(dp106
g2
g10
sg4
F20.0
sg5
F20.0
sg6
F0.0
sg7
F89.0
sa(dp107
g2
g10
sg4
F9.2
sg5
F10.0
sg6
F0.8
sg7
F90.0
sa(dp108
g2
g10
sg4
F4.99
sg5
F5.0
sg6
F0.0
sg7
F91.0
sa(dp109
g2
g10
sg4
F2.65
sg5
F3.0
sg6
F0.35
sg7
F92.0
sa(dp110
g2
V1997
p111
sg4
F12.5
sg5
F13.0
sg6
F0.5
sg7
F93.0
sa(dp112
g2
g111
sg4
F4.75
sg5
F5.0
sg6
F0.25
sg7
F94.0
sa(dp113
g2
g111
sg4
F4.6
sg5
F5.0
sg6
F0.4
sg7
F95.0
sa(dp114
g2
g13
sg4
F12.0
sg5
F12.0
sg6
F0.0
sg7
F96.0
sa(dp115
g2
g13
sg4
F25.0
sg5
F25.0
sg6
F0.0
sg7
F97.0
sa(dp116
g2
g13
sg4
F18.75
sg5
F19.0
sg6
F0.25
sg7
F98.0
sa(dp117
g2
g13
sg4
F9.4
sg5
F10.0
sg6
F0.59
sg7
F99.0
sa(dp118
g2
g13
sg4
F4.49
sg5
F5.0
sg6
F0.5
sg7
F100.0
sa(dp119
g2
g13
sg4
F0.7
sg5
F1.0
sg6
F0.3
sg7
F101.0
sa(dp120
g2
g13
sg4
F8.31
sg5
F9.0
sg6
F0.68
sg7
F102.0
sa(dp121
g2
g13
sg4
F6.52
sg5
F7.0
sg6
F0.48
sg7
F103.0
sa(dp122
g2
V2001
p123
sg4
F6.71
sg5
F7.0
sg6
F0.29
sg7
F104.0
sa(dp124
g2
g123
sg4
F5.5
sg5
F6.0
sg6
F0.5
sg7
F105.0
sa(dp125
g2
g123
sg4
F37.0
sg5
F37.0
sg6
F0.0
sg7
F106.0
sa(dp126
g2
g123
sg4
F7.36
sg5
F8.0
sg6
F0.63
sg7
F107.0
sa(dp127
g2
g123
sg4
F3.88
sg5
F4.0
sg6
F0.12
sg7
F108.0
sa(dp128
g2
V2002
p129
sg4
F7.2
sg5
F8.0
sg6
F0.79
sg7
F109.0
sa(dp130
g2
g129
sg4
F4.75
sg5
F5.0
sg6
F0.25
sg7
F110.0
sa(dp131
g2
g129
sg4
F1.16
sg5
F2.0
sg6
F0.84
sg7
F111.0
sa(dp132
g2
g31
sg4
F3.7
sg5
F4.0
sg6
F0.29
sg7
F112.0
sa(dp133
g2
g31
sg4
F3.3
sg5
F4.0
sg6
F0.7
sg7
F113.0
sa(dp134
g2
g31
sg4
F8.08
sg5
F9.0
sg6
F0.92
sg7
F114.0
sa(dp135
g2
g31
sg4
F8.0
sg5
F8.0
sg6
F0.0
sg7
F115.0
sa(dp136
g2
g31
sg4
F7.77
sg5
F8.0
sg6
F0.23
sg7
F116.0
sa(dp137
g2
g33
sg4
F300.0
sg5
F300.0
sg6
F0.0
sg7
F117.0
sa(dp138
g2
g33
sg4
F3.8
sg5
F4.0
sg6
F0.2
sg7
F118.0
sa(dp139
g2
g33
sg4
F18.15
sg5
F19.0
sg6
F0.85
sg7
F119.0
sa(dp140
g2
g40
sg4
F5.0
sg5
F5.0
sg6
F0.0
sg7
F121.0
sa(dp141
g2
g40
sg4
F20.0
sg5
F20.0
sg6
F0.0
sg7
F122.0
sa(dp142
g2
g40
sg4
F10.0
sg5
F10.0
sg6
F0.0
sg7
F123.0
sa(dp143
g2
g40
sg4
F8.0
sg5
F8.0
sg6
F0.0
sg7
F124.0
sa(dp144
g2
g40
sg4
F11.7
sg5
F12.0
sg6
F0.3
sg7
F125.0
sa(dp145
g2
g40
sg4
F11.6
sg5
F12.0
sg6
F0.4
sg7
F126.0
sa(dp146
g2
g40
sg4
F7.9
sg5
F8.0
sg6
F0.09
sg7
F127.0
sa(dp147
g2
g40
sg4
F7.0
sg5
F7.0
sg6
F0.0
sg7
F128.0
sa(dp148
g2
g40
sg4
F7.0
sg5
F7.0
sg6
F0.0
sg7
F129.0
sa(dp149
g2
g40
sg4
F6.0
sg5
F6.0
sg6
F0.0
sg7
F130.0
sa(dp150
g2
g40
sg4
F8.44
sg5
F9.0
sg6
F0.56
sg7
F131.0
sa(dp151
g2
V1979
p152
sg4
F2.7
sg5
F3.0
sg6
F0.29
sg7
F132.0
sa(dp153
g2
g51
sg4
F14.99
sg5
F15.0
sg6
F0.0
sg7
F133.0
sa(dp154
g2
g58
sg4
F36.59
sg5
F37.0
sg6
F0.4
sg7
F134.0
sa(dp155
g2
g58
sg4
F5.71
sg5
F6.0
sg6
F0.29
sg7
F135.0
sa(dp156
g2
g61
sg4
F24.45
sg5
F25.0
sg6
F0.55
sg7
F136.0
sa(dp157
g2
g61
sg4
F4.9
sg5
F5.0
sg6
F0.09
sg7
F137.0
sa(dp158
g2
g61
sg4
F4.5
sg5
F5.0
sg6
F0.5
sg7
F138.0
sa(dp159
g2
g61
sg4
F2.2
sg5
F3.0
sg6
F0.79
sg7
F139.0
sa(dp160
g2
g65
sg4
F22.4
sg5
F23.0
sg6
F0.6
sg7
F140.0
sa(dp161
g2
g65
sg4
F10.5
sg5
F11.0
sg6
F0.5
sg7
F141.0
sa(dp162
g2
g65
sg4
F5.5
sg5
F6.0
sg6
F0.5
sg7
F142.0
sa(dp163
g2
g65
sg4
F4.25
sg5
F5.0
sg6
F0.75
sg7
F143.0
sa(dp164
g2
g65
sg4
F3.5
sg5
F4.0
sg6
F0.5
sg7
F144.0
sa(dp165
g2
g65
sg4
F17.99
sg5
F18.0
sg6
F0.01
sg7
F145.0
sa(dp166
g2
g65
sg4
F17.91
sg5
F18.0
sg6
F0.08
sg7
F146.0
sa(dp167
g2
g65
sg4
F15.99
sg5
F16.0
sg6
F0.0
sg7
F147.0
sa(dp168
g2
g65
sg4
F11.88
sg5
F12.0
sg6
F0.11
sg7
F148.0
sa(dp169
g2
g65
sg4
F6.43
sg5
F7.0
sg6
F0.57
sg7
F149.0
sa(dp170
g2
g65
sg4
F4.58
sg5
F5.0
sg6
F0.41
sg7
F150.0
sa(dp171
g2
g65
sg4
F3.82
sg5
F4.0
sg6
F0.18
sg7
F151.0
sa(dp172
g2
V1986
p173
sg4
F20.0
sg5
F20.0
sg6
F0.0
sg7
F152.0
sa(dp174
g2
g173
sg4
F14.0
sg5
F14.0
sg6
F0.0
sg7
F153.0
sa(dp175
g2
g173
sg4
F5.4
sg5
F6.0
sg6
F0.59
sg7
F154.0
sa(dp176
g2
g173
sg4
F7.49
sg5
F8.0
sg6
F0.5
sg7
F155.0
sa(dp177
g2
g173
sg4
F4.5
sg5
F5.0
sg6
F0.5
sg7
F156.0
sa.